target datalayout = "e-m:e-p270:32:32-p271:32:32-p272:64:64-i64:64-i128:128-f80:128-n8:16:32:64-S128"
target triple = "x86_64-pc-linux-gnu"

%struct._gradient_slider_stop_t = type { double, %struct._GdkRGBA }
%struct._GdkRGBA = type { double, double, double, double }
%struct._GtkDarktableGradientSlider = type { %struct._GtkDrawingArea, ptr, i32, i32, i32, [10 x double], [10 x double], [10 x i32], double, double, [3 x double], i32, i32, i32, i32, i32, i32, i32, i32, i32, ptr }
%struct._GtkDrawingArea = type { %struct._GtkWidget, ptr }
%struct._GtkWidget = type { %struct._GObject, ptr }
%struct._GObject = type { %struct._GTypeInstance, i32, ptr }
%struct._GTypeInstance = type { ptr }
%struct._GList = type { ptr, ptr, ptr }

@__func__.dtgtk_gradient_slider_multivalue_set_stop = private unnamed_addr constant [42 x i8] c"dtgtk_gradient_slider_multivalue_set_stop\00", align 1
@.str.1 = private unnamed_addr constant [16 x i8] c"gslider != NULL\00", align 1

; Function Attrs: nounwind uwtable
define void @dtgtk_gradient_slider_multivalue_set_stop(ptr noundef %0, float noundef %1, ptr noundef byval(%struct._GdkRGBA) align 8 %2) #0 {
  %4 = alloca ptr, align 8
  %5 = alloca float, align 4
  %6 = alloca i32, align 4
  %7 = alloca i32, align 4
  %8 = alloca float, align 4
  %9 = alloca ptr, align 8
  %10 = alloca ptr, align 8
  store ptr %0, ptr %4, align 8, !tbaa !24
  store float %1, ptr %5, align 4, !tbaa !18
  br label %11

11:                                               ; preds = %3
  call void @llvm.lifetime.start.p0(i64 4, ptr %6) #11
  %12 = load ptr, ptr %4, align 8, !tbaa !24
  %13 = icmp ne ptr %12, null
  br i1 %13, label %14, label %15

14:                                               ; preds = %11
  store i32 1, ptr %6, align 4, !tbaa !13
  br label %16

15:                                               ; preds = %11
  store i32 0, ptr %6, align 4, !tbaa !13
  br label %16

16:                                               ; preds = %15, %14
  %17 = load i32, ptr %6, align 4, !tbaa !13
  store i32 %17, ptr %7, align 4, !tbaa !13
  call void @llvm.lifetime.end.p0(i64 4, ptr %6) #11
  %18 = load i32, ptr %7, align 4, !tbaa !13
  %19 = sext i32 %18 to i64
  %20 = call i64 @llvm.expect.i64(i64 %19, i64 1)
  %21 = icmp ne i64 %20, 0
  br i1 %21, label %22, label %23

22:                                               ; preds = %16
  br label %24

23:                                               ; preds = %16
  call void @g_return_if_fail_warning(ptr noundef null, ptr noundef @__func__.dtgtk_gradient_slider_multivalue_set_stop, ptr noundef @.str.1)
  br label %59

24:                                               ; preds = %22
  br label %25

25:                                               ; preds = %24
  call void @llvm.lifetime.start.p0(i64 4, ptr %8) #11
  %26 = load ptr, ptr %4, align 8, !tbaa !24
  %27 = getelementptr inbounds nuw %struct._GtkDarktableGradientSlider, ptr %26, i32 0, i32 20
  %28 = load ptr, ptr %27, align 8, !tbaa !43
  %29 = load ptr, ptr %4, align 8, !tbaa !24
  %30 = load float, ptr %5, align 4, !tbaa !18
  %31 = call reassoc nsz arcp contract afn float %28(ptr noundef %29, float noundef %30, i32 noundef 1)
  store float %31, ptr %8, align 4, !tbaa !18
  call void @llvm.lifetime.start.p0(i64 8, ptr %9) #11
  %32 = load ptr, ptr %4, align 8, !tbaa !24
  %33 = getelementptr inbounds nuw %struct._GtkDarktableGradientSlider, ptr %32, i32 0, i32 1
  %34 = load ptr, ptr %33, align 8, !tbaa !50
  %35 = call ptr @g_list_find_custom(ptr noundef %34, ptr noundef %8, ptr noundef @_list_find_by_position)
  store ptr %35, ptr %9, align 8, !tbaa !56
  %36 = load ptr, ptr %9, align 8, !tbaa !56
  %37 = icmp ne ptr %36, null
  br i1 %37, label %38, label %43

38:                                               ; preds = %25
  %39 = load ptr, ptr %9, align 8, !tbaa !56
  %40 = getelementptr inbounds nuw %struct._GList, ptr %39, i32 0, i32 0
  %41 = load ptr, ptr %40, align 8, !tbaa !57
  %42 = getelementptr inbounds nuw %struct._gradient_slider_stop_t, ptr %41, i32 0, i32 1
  call void @llvm.memcpy.p0.p0.i64(ptr align 8 %42, ptr align 8 %2, i64 32, i1 false)
  br label %58

43:                                               ; preds = %25
  call void @llvm.lifetime.start.p0(i64 8, ptr %10) #11
  %44 = call noalias ptr @g_malloc(i64 noundef 40) #13
  store ptr %44, ptr %10, align 8, !tbaa !16
  %45 = load float, ptr %8, align 4, !tbaa !18
  %46 = fpext reassoc nsz arcp contract afn float %45 to double
  %47 = load ptr, ptr %10, align 8, !tbaa !16
  %48 = getelementptr inbounds nuw %struct._gradient_slider_stop_t, ptr %47, i32 0, i32 0
  store double %46, ptr %48, align 8, !tbaa !20
  %49 = load ptr, ptr %10, align 8, !tbaa !16
  %50 = getelementptr inbounds nuw %struct._gradient_slider_stop_t, ptr %49, i32 0, i32 1
  call void @llvm.memcpy.p0.p0.i64(ptr align 8 %50, ptr align 8 %2, i64 32, i1 false)
  %51 = load ptr, ptr %4, align 8, !tbaa !24
  %52 = getelementptr inbounds nuw %struct._GtkDarktableGradientSlider, ptr %51, i32 0, i32 1
  %53 = load ptr, ptr %52, align 8, !tbaa !50
  %54 = load ptr, ptr %10, align 8, !tbaa !16
  %55 = call ptr @g_list_append(ptr noundef %53, ptr noundef %54)
  %56 = load ptr, ptr %4, align 8, !tbaa !24
  %57 = getelementptr inbounds nuw %struct._GtkDarktableGradientSlider, ptr %56, i32 0, i32 1
  store ptr %55, ptr %57, align 8, !tbaa !50
  call void @llvm.lifetime.end.p0(i64 8, ptr %10) #11
  br label %58

58:                                               ; preds = %43, %38
  call void @llvm.lifetime.end.p0(i64 8, ptr %9) #11
  call void @llvm.lifetime.end.p0(i64 4, ptr %8) #11
  br label %59

59:                                               ; preds = %58, %23
  ret void
}

; Function Attrs: nounwind uwtable
define void @dtgtk_gradient_slider_set_stop(ptr noundef %0, float noundef %1, ptr noundef byval(%struct._GdkRGBA) align 8 %2) #0 {
  %4 = alloca ptr, align 8
  %5 = alloca float, align 4
  store ptr %0, ptr %4, align 8, !tbaa !24
  store float %1, ptr %5, align 4, !tbaa !18
  %6 = load ptr, ptr %4, align 8, !tbaa !24
  %7 = load float, ptr %5, align 4, !tbaa !18
  call void @dtgtk_gradient_slider_multivalue_set_stop(ptr noundef %6, float noundef %7, ptr noundef byval(%struct._GdkRGBA) align 8 %2)
  ret void
}