; Function Attrs: nounwind uwtable
define void @dtgtk_gradient_slider_set_stop(ptr noundef %0, float noundef %1, ptr noundef readonly byval(%struct._GdkRGBA) align 8 captures(none) %2) local_unnamed_addr #0 {
  %4 = alloca float, align 4
  %.not.i = icmp eq ptr %0, null
  br i1 %.not.i, label %5, label %6, !prof !45

5:                                                ; preds = %3
  tail call void @g_return_if_fail_warning(ptr noundef null, ptr noundef nonnull @__func__.dtgtk_gradient_slider_multivalue_set_stop, ptr noundef nonnull @.str.1) #14
  br label %dtgtk_gradient_slider_multivalue_set_stop.exit

6:                                                ; preds = %3
  call void @llvm.lifetime.start.p0(i64 4, ptr nonnull %4) #14
  %7 = getelementptr inbounds nuw i8, ptr %0, i64 344
  %8 = load ptr, ptr %7, align 8, !tbaa !34
  %9 = tail call reassoc nsz arcp contract afn float %8(ptr noundef nonnull %0, float noundef %1, i32 noundef 1) #14
  store float %9, ptr %4, align 4, !tbaa !10
  %10 = getelementptr inbounds nuw i8, ptr %0, i64 40
  %11 = load ptr, ptr %10, align 8, !tbaa !42
  %12 = call ptr @g_list_find_custom(ptr noundef %11, ptr noundef nonnull %4, ptr noundef nonnull @_list_find_by_position) #14
  %.not15.i = icmp eq ptr %12, null
  br i1 %.not15.i, label %16, label %13

13:                                               ; preds = %6
  %14 = load ptr, ptr %12, align 8, !tbaa !46
  %15 = getelementptr inbounds nuw i8, ptr %14, i64 8
  call void @llvm.memcpy.p0.p0.i64(ptr noundef nonnull align 8 dereferenceable(32) %15, ptr noundef nonnull align 8 dereferenceable(32) %2, i64 32, i1 false)
  br label %23

16:                                               ; preds = %6
  %17 = call noalias dereferenceable_or_null(40) ptr @g_malloc(i64 noundef 40) #16
  %18 = load float, ptr %4, align 4, !tbaa !10
  %19 = fpext reassoc nsz arcp contract afn float %18 to double
  store double %19, ptr %17, align 8, !tbaa !12
  %20 = getelementptr inbounds nuw i8, ptr %17, i64 8
  call void @llvm.memcpy.p0.p0.i64(ptr noundef nonnull align 8 dereferenceable(32) %20, ptr noundef nonnull align 8 dereferenceable(32) %2, i64 32, i1 false)
  %21 = load ptr, ptr %10, align 8, !tbaa !42
  %22 = call ptr @g_list_append(ptr noundef %21, ptr noundef nonnull %17) #14
  store ptr %22, ptr %10, align 8, !tbaa !42
  br label %23

23:                                               ; preds = %16, %13
  call void @llvm.lifetime.end.p0(i64 4, ptr nonnull %4) #14
  br label %dtgtk_gradient_slider_multivalue_set_stop.exit

dtgtk_gradient_slider_multivalue_set_stop.exit:   ; preds = %5, %23
  ret void
}